; ModuleID = '45/453.c'
source_filename = "45/453.c"
target datalayout = "e-m:e-p270:32:32-p271:32:32-p272:64:64-i64:64-f80:128-n8:16:32:64-S128"
target triple = "x86_64-pc-linux-gnu"

@.str = private unnamed_addr constant [6 x i8] c"%s %s\00", align 1
@.str.1 = private unnamed_addr constant [3 x i8] c"%d\00", align 1

; Function Attrs: noinline nounwind uwtable
define dso_local void @main() #0 {
  %1 = alloca i32, align 4
  %2 = alloca i32, align 4
  %3 = alloca i32, align 4
  %4 = alloca i32, align 4
  %5 = alloca [50 x i8], align 16
  %6 = alloca [50 x i8], align 16
  %7 = alloca i8*, align 8
  %8 = alloca i8*, align 8
  %9 = getelementptr inbounds [50 x i8], [50 x i8]* %5, i64 0, i64 0
  %10 = getelementptr inbounds [50 x i8], [50 x i8]* %6, i64 0, i64 0
  %11 = call i32 (i8*, ...) @__isoc99_scanf(i8* getelementptr inbounds ([6 x i8], [6 x i8]* @.str, i64 0, i64 0), i8* %9, i8* %10)
  %12 = getelementptr inbounds [50 x i8], [50 x i8]* %5, i64 0, i64 0
  store i8* %12, i8** %7, align 8
  %13 = getelementptr inbounds [50 x i8], [50 x i8]* %6, i64 0, i64 0
  store i8* %13, i8** %8, align 8
  store i32 0, i32* %3, align 4
  store i32 0, i32* %1, align 4
  br label %14

14:                                               ; preds = %77, %0
  %15 = load i32, i32* %1, align 4
  %16 = sext i32 %15 to i64
  %17 = getelementptr inbounds [50 x i8], [50 x i8]* %6, i64 0, i64 0
  %18 = call i64 @strlen(i8* %17) #3
  %19 = icmp ult i64 %16, %18
  br i1 %19, label %20, label %23

20:                                               ; preds = %14
  %21 = load i32, i32* %3, align 4
  %22 = icmp ne i32 %21, 1
  br label %23

23:                                               ; preds = %20, %14
  %24 = phi i1 [ false, %14 ], [ %22, %20 ]
  br i1 %24, label %25, label %82

25:                                               ; preds = %23
  %26 = load i8*, i8** %8, align 8
  %27 = load i8, i8* %26, align 1
  %28 = sext i8 %27 to i32
  %29 = load i8*, i8** %7, align 8
  %30 = load i8, i8* %29, align 1
  %31 = sext i8 %30 to i32
  %32 = icmp eq i32 %28, %31
  br i1 %32, label %33, label %70

33:                                               ; preds = %25
  store i32 0, i32* %4, align 4
  %34 = load i32, i32* %1, align 4
  store i32 %34, i32* %2, align 4
  br label %35

35:                                               ; preds = %54, %33
  %36 = load i32, i32* %2, align 4
  %37 = sext i32 %36 to i64
  %38 = load i32, i32* %1, align 4
  %39 = sext i32 %38 to i64
  %40 = getelementptr inbounds [50 x i8], [50 x i8]* %5, i64 0, i64 0
  %41 = call i64 @strlen(i8* %40) #3
  %42 = add i64 %39, %41
  %43 = icmp ult i64 %37, %42
  br i1 %43, label %44, label %61

44:                                               ; preds = %35
  %45 = load i8*, i8** %8, align 8
  %46 = load i8, i8* %45, align 1
  %47 = sext i8 %46 to i32
  %48 = load i8*, i8** %7, align 8
  %49 = load i8, i8* %48, align 1
  %50 = sext i8 %49 to i32
  %51 = icmp ne i32 %47, %50
  br i1 %51, label %52, label %53

52:                                               ; preds = %44
  store i32 1, i32* %4, align 4
  br label %53

53:                                               ; preds = %52, %44
  br label %54

54:                                               ; preds = %53
  %55 = load i32, i32* %2, align 4
  %56 = add nsw i32 %55, 1
  store i32 %56, i32* %2, align 4
  %57 = load i8*, i8** %7, align 8
  %58 = getelementptr inbounds i8, i8* %57, i32 1
  store i8* %58, i8** %7, align 8
  %59 = load i8*, i8** %8, align 8
  %60 = getelementptr inbounds i8, i8* %59, i32 1
  store i8* %60, i8** %8, align 8
  br label %35

61:                                               ; preds = %35
  %62 = load i32, i32* %4, align 4
  %63 = icmp eq i32 %62, 0
  br i1 %63, label %64, label %65

64:                                               ; preds = %61
  store i32 1, i32* %3, align 4
  br label %65

65:                                               ; preds = %64, %61
  %66 = getelementptr inbounds [50 x i8], [50 x i8]* %5, i64 0, i64 0
  store i8* %66, i8** %7, align 8
  %67 = load i32, i32* %1, align 4
  %68 = sext i32 %67 to i64
  %69 = getelementptr inbounds [50 x i8], [50 x i8]* %6, i64 0, i64 %68
  store i8* %69, i8** %8, align 8
  br label %70

70:                                               ; preds = %65, %25
  %71 = load i32, i32* %3, align 4
  %72 = icmp ne i32 %71, 0
  br i1 %72, label %73, label %76

73:                                               ; preds = %70
  %74 = load i32, i32* %1, align 4
  %75 = call i32 (i8*, ...) @printf(i8* getelementptr inbounds ([3 x i8], [3 x i8]* @.str.1, i64 0, i64 0), i32 %74)
  br label %76

76:                                               ; preds = %73, %70
  br label %77

77:                                               ; preds = %76
  %78 = load i32, i32* %1, align 4
  %79 = add nsw i32 %78, 1
  store i32 %79, i32* %1, align 4
  %80 = load i8*, i8** %8, align 8
  %81 = getelementptr inbounds i8, i8* %80, i32 1
  store i8* %81, i8** %8, align 8
  br label %14

82:                                               ; preds = %23
  ret void
}

declare dso_local i32 @__isoc99_scanf(i8*, ...) #1

; Function Attrs: nounwind readonly
declare dso_local i64 @strlen(i8*) #2

declare dso_local i32 @printf(i8*, ...) #1


!llvm.module.flags = !{!0}
!llvm.ident = !{!1}

!0 = !{i32 1, !"wchar_size", i32 4}
!1 = !{!"clang version 10.0.0-4ubuntu1 "}
